---
triple:          'arm64-apple-darwin'
binary-path:     main
relocations:
  - { offsetInCU: 0x4001, offset: 0x4001, size: 0x8, addend: 0x0, symName: __ZNSt3__124__put_character_sequenceB7v160006IcNS_11char_traitsIcEEEERNS_13basic_ostreamIT_T0_EES7_PKS4_m, symObjAddr: 0x47B0, symBinAddr: 0x100006C90, symSize: 0x1F4 }
  - { offsetInCU: 0x6A6F, offset: 0x6A6F, size: 0x8, addend: 0x0, symName: __ZNSt3__14endlB7v160006IcNS_11char_traitsIcEEEERNS_13basic_ostreamIT_T0_EES7_, symObjAddr: 0x464, symBinAddr: 0x100002944, symSize: 0x58 }
  - { offsetInCU: 0x6AAF, offset: 0x6AAF, size: 0x8, addend: 0x0, symName: __ZNSt3__1lsB7v160006INS_11char_traitsIcEEEERNS_13basic_ostreamIcT_EES6_PKc, symObjAddr: 0x4BC, symBinAddr: 0x10000299C, symSize: 0x48 }
  - { offsetInCU: 0x6AF5, offset: 0x6AF5, size: 0x8, addend: 0x0, symName: __ZNSt3__1neB7v160006ERKNS_16__deque_iteratorIP4NodePS2_RS2_PS3_lLl512EEES8_, symObjAddr: 0x1080, symBinAddr: 0x100003560, symSize: 0x34 }
  - { offsetInCU: 0x6B32, offset: 0x6B32, size: 0x8, addend: 0x0, symName: __ZNSt3__1eqB7v160006ERKNS_16__deque_iteratorIP4NodePS2_RS2_PS3_lLl512EEES8_, symObjAddr: 0x1314, symBinAddr: 0x1000037F4, symSize: 0x30 }
  - { offsetInCU: 0x6B6F, offset: 0x6B6F, size: 0x8, addend: 0x0, symName: __ZNSt3__130__libcpp_is_constant_evaluatedB7v160006Ev, symObjAddr: 0x144C, symBinAddr: 0x10000392C, symSize: 0xC }
  - { offsetInCU: 0x6B8C, offset: 0x6B8C, size: 0x8, addend: 0x0, symName: __ZNSt3__119__libcpp_deallocateB7v160006EPvmm, symObjAddr: 0x1458, symBinAddr: 0x100003938, symSize: 0x30 }
  - { offsetInCU: 0x6BD4, offset: 0x6BD4, size: 0x8, addend: 0x0, symName: __ZNSt3__127__do_deallocate_handle_sizeB7v160006IJEEEvPvmDpT_, symObjAddr: 0x1488, symBinAddr: 0x100003968, symSize: 0x28 }
  - { offsetInCU: 0x6C12, offset: 0x6C12, size: 0x8, addend: 0x0, symName: __ZNSt3__124__libcpp_operator_deleteB7v160006IJPvEEEvDpT_, symObjAddr: 0x14B0, symBinAddr: 0x100003990, symSize: 0x24 }
  - { offsetInCU: 0x6C47, offset: 0x6C47, size: 0x8, addend: 0x0, symName: __ZNSt3__112__to_addressB7v160006IPP4NodeEEPT_S5_, symObjAddr: 0x173C, symBinAddr: 0x100003C1C, symSize: 0x14 }
  - { offsetInCU: 0x6C7C, offset: 0x6C7C, size: 0x8, addend: 0x0, symName: __ZNSt3__13maxB7v160006ImEERKT_S3_S3_, symObjAddr: 0x2844, symBinAddr: 0x100004D24, symSize: 0x2C }
  - { offsetInCU: 0x7148, offset: 0x7148, size: 0x8, addend: 0x0, symName: __ZNSt3__14swapB7v160006IPPP4NodeEEvRT_S6_, symObjAddr: 0x2E74, symBinAddr: 0x100005354, symSize: 0x3C }
  - { offsetInCU: 0x7199, offset: 0x7199, size: 0x8, addend: 0x0, symName: __ZNSt3__14moveB7v160006IPPP4NodeS4_EET0_T_S6_S5_, symObjAddr: 0x2F58, symBinAddr: 0x100005438, symSize: 0x40 }
  - { offsetInCU: 0x720F, offset: 0x720F, size: 0x8, addend: 0x0, symName: __ZNSt3__16__moveB7v160006INS_17_ClassicAlgPolicyEPPP4NodeS5_S5_EENS_4pairIT0_T2_EES7_T1_S8_, symObjAddr: 0x3104, symBinAddr: 0x1000055E4, symSize: 0x44 }
  - { offsetInCU: 0x727B, offset: 0x727B, size: 0x8, addend: 0x0, symName: __ZNSt3__123__dispatch_copy_or_moveB7v160006INS_17_ClassicAlgPolicyENS_11__move_loopIS1_EENS_14__move_trivialEPPP4NodeS8_S8_EENS_4pairIT2_T4_EESA_T3_SB_, symObjAddr: 0x3148, symBinAddr: 0x100005628, symSize: 0x54 }
  - { offsetInCU: 0x72F9, offset: 0x72F9, size: 0x8, addend: 0x0, symName: __ZNSt3__121__unwrap_and_dispatchB7v160006INS_10__overloadINS_11__move_loopINS_17_ClassicAlgPolicyEEENS_14__move_trivialEEEPPP4NodeSA_SA_Li0EEENS_4pairIT0_T2_EESC_T1_SD_, symObjAddr: 0x319C, symBinAddr: 0x10000567C, symSize: 0xB4 }
  - { offsetInCU: 0x7387, offset: 0x7387, size: 0x8, addend: 0x0, symName: __ZNSt3__114__unwrap_rangeB7v160006IPPP4NodeS4_EENS_4pairIT0_S6_EET_S8_, symObjAddr: 0x3250, symBinAddr: 0x100005730, symSize: 0x60 }
  - { offsetInCU: 0x74C6, offset: 0x74C6, size: 0x8, addend: 0x0, symName: __ZNSt3__113__unwrap_iterB7v160006IPPP4NodeNS_18__unwrap_iter_implIS4_Lb1EEELi0EEEDTclsrT0_8__unwrapclsr3stdE7declvalIT_EEEES8_, symObjAddr: 0x32F8, symBinAddr: 0x1000057D8, symSize: 0x24 }
  - { offsetInCU: 0x750A, offset: 0x750A, size: 0x8, addend: 0x0, symName: __ZNSt3__19make_pairB7v160006IPPP4NodeS4_EENS_4pairINS_18__unwrap_ref_decayIT_E4typeENS6_IT0_E4typeEEEOS7_OSA_, symObjAddr: 0x331C, symBinAddr: 0x1000057FC, symSize: 0x38 }
  - { offsetInCU: 0x7559, offset: 0x7559, size: 0x8, addend: 0x0, symName: __ZNSt3__114__rewrap_rangeB7v160006IPPP4NodeS4_EET_S5_T0_, symObjAddr: 0x3354, symBinAddr: 0x100005834, symSize: 0x2C }
  - { offsetInCU: 0x75A5, offset: 0x75A5, size: 0x8, addend: 0x0, symName: __ZNSt3__113__rewrap_iterB7v160006IPPP4NodeS4_NS_18__unwrap_iter_implIS4_Lb1EEEEET_S7_T0_, symObjAddr: 0x3380, symBinAddr: 0x100005860, symSize: 0x50 }
  - { offsetInCU: 0x75FA, offset: 0x75FA, size: 0x8, addend: 0x0, symName: __ZNSt3__119__copy_trivial_implB7v160006IPP4NodeS3_EENS_4pairIPT_PT0_EES6_S6_S8_, symObjAddr: 0x33D0, symBinAddr: 0x1000058B0, symSize: 0x84 }
  - { offsetInCU: 0x7662, offset: 0x7662, size: 0x8, addend: 0x0, symName: __ZNSt3__19make_pairB7v160006IRPPP4NodeS4_EENS_4pairINS_18__unwrap_ref_decayIT_E4typeENS7_IT0_E4typeEEEOS8_OSB_, symObjAddr: 0x3454, symBinAddr: 0x100005934, symSize: 0x38 }
  - { offsetInCU: 0x7704, offset: 0x7704, size: 0x8, addend: 0x0, symName: __ZNSt3__18distanceB7v160006INS_13move_iteratorIPPP4NodeEEEENS_15iterator_traitsIT_E15difference_typeES8_S8_, symObjAddr: 0x3570, symBinAddr: 0x100005A50, symSize: 0x3C }
  - { offsetInCU: 0x7747, offset: 0x7747, size: 0x8, addend: 0x0, symName: __ZNSt3__110__distanceB7v160006INS_13move_iteratorIPPP4NodeEEEENS_15iterator_traitsIT_E15difference_typeES8_S8_NS_26random_access_iterator_tagE, symObjAddr: 0x36A8, symBinAddr: 0x100005B88, symSize: 0x30 }
  - { offsetInCU: 0x7794, offset: 0x7794, size: 0x8, addend: 0x0, symName: __ZNSt3__1miB7v160006IPPP4NodeS4_EENS_13move_iteratorIT_E15difference_typeERKS7_RKNS5_IT0_EE, symObjAddr: 0x36D8, symBinAddr: 0x100005BB8, symSize: 0x48 }
  - { offsetInCU: 0x77E3, offset: 0x77E3, size: 0x8, addend: 0x0, symName: __ZNSt3__117__libcpp_allocateB7v160006Emm, symObjAddr: 0x3928, symBinAddr: 0x100005E08, symSize: 0x28 }
  - { offsetInCU: 0x7820, offset: 0x7820, size: 0x8, addend: 0x0, symName: __ZNSt3__121__libcpp_operator_newB7v160006IJmEEEPvDpT_, symObjAddr: 0x3964, symBinAddr: 0x100005E44, symSize: 0x24 }
  - { offsetInCU: 0x7859, offset: 0x7859, size: 0x8, addend: 0x0, symName: __ZNSt3__113move_backwardB7v160006IPPP4NodeS4_EET0_T_S6_S5_, symObjAddr: 0x3988, symBinAddr: 0x100005E68, symSize: 0x40 }
  - { offsetInCU: 0x78B3, offset: 0x78B3, size: 0x8, addend: 0x0, symName: __ZNSt3__115__move_backwardB7v160006INS_17_ClassicAlgPolicyEPPP4NodeS5_S5_EENS_4pairIT0_T2_EES7_T1_S8_, symObjAddr: 0x39C8, symBinAddr: 0x100005EA8, symSize: 0x44 }
  - { offsetInCU: 0x791F, offset: 0x791F, size: 0x8, addend: 0x0, symName: __ZNSt3__123__dispatch_copy_or_moveB7v160006INS_17_ClassicAlgPolicyENS_20__move_backward_loopIS1_EENS_23__move_backward_trivialEPPP4NodeS8_S8_EENS_4pairIT2_T4_EESA_T3_SB_, symObjAddr: 0x3A0C, symBinAddr: 0x100005EEC, symSize: 0x54 }
  - { offsetInCU: 0x799D, offset: 0x799D, size: 0x8, addend: 0x0, symName: __ZNSt3__121__unwrap_and_dispatchB7v160006INS_10__overloadINS_20__move_backward_loopINS_17_ClassicAlgPolicyEEENS_23__move_backward_trivialEEEPPP4NodeSA_SA_Li0EEENS_4pairIT0_T2_EESC_T1_SD_, symObjAddr: 0x3A60, symBinAddr: 0x100005F40, symSize: 0xB4 }
  - { offsetInCU: 0x7A71, offset: 0x7A71, size: 0x8, addend: 0x0, symName: __ZNSt3__128__copy_backward_trivial_implB7v160006IPP4NodeS3_EENS_4pairIPT_PT0_EES6_S6_S8_, symObjAddr: 0x3B5C, symBinAddr: 0x10000603C, symSize: 0x94 }
  - { offsetInCU: 0x7AD9, offset: 0x7AD9, size: 0x8, addend: 0x0, symName: __ZNSt3__19make_pairB7v160006IRPPP4NodeS5_EENS_4pairINS_18__unwrap_ref_decayIT_E4typeENS7_IT0_E4typeEEEOS8_OSB_, symObjAddr: 0x3BF0, symBinAddr: 0x1000060D0, symSize: 0x38 }
  - { offsetInCU: 0x7B28, offset: 0x7B28, size: 0x8, addend: 0x0, symName: __ZNSt3__13maxB7v160006ImNS_6__lessImmEEEERKT_S5_S5_T0_, symObjAddr: 0x3C28, symBinAddr: 0x100006108, symSize: 0x54 }
  - { offsetInCU: 0x7BBD, offset: 0x7BBD, size: 0x8, addend: 0x0, symName: __ZNSt3__119__allocate_at_leastB7v160006INS_9allocatorIPP4NodeEEEENS_19__allocation_resultINS_16allocator_traitsIT_E7pointerEEERS8_m, symObjAddr: 0x3DC0, symBinAddr: 0x1000062A0, symSize: 0x40 }
  - { offsetInCU: 0x7C00, offset: 0x7C00, size: 0x8, addend: 0x0, symName: __ZNSt3__112__to_addressB7v160006IP4NodeEEPT_S4_, symObjAddr: 0x45A4, symBinAddr: 0x100006A84, symSize: 0x14 }
  - { offsetInCU: 0x7C35, offset: 0x7C35, size: 0x8, addend: 0x0, symName: __ZNSt3__19use_facetB7v160006INS_5ctypeIcEEEERKT_RKNS_6localeE, symObjAddr: 0x474C, symBinAddr: 0x100006C2C, symSize: 0x2C }
  - { offsetInCU: 0x8104, offset: 0x8104, size: 0x8, addend: 0x0, symName: __ZNSt3__116__pad_and_outputB7v160006IcNS_11char_traitsIcEEEENS_19ostreambuf_iteratorIT_T0_EES6_PKS4_S8_S8_RNS_8ios_baseES4_, symObjAddr: 0x4A08, symBinAddr: 0x100006EE8, symSize: 0x248 }
  - { offsetInCU: 0x81D3, offset: 0x81D3, size: 0x8, addend: 0x0, symName: __ZNSt3__119__debug_db_insert_cB7v160006INS_12basic_stringIcNS_11char_traitsIcEENS_9allocatorIcEEEEEEvPT_, symObjAddr: 0x4EC4, symBinAddr: 0x1000073A4, symSize: 0x10 }
  - { offsetInCU: 0x8204, offset: 0x8204, size: 0x8, addend: 0x0, symName: __ZNSt3__112__to_addressB7v160006IKcEEPT_S3_, symObjAddr: 0x4F90, symBinAddr: 0x100007470, symSize: 0x14 }
  - { offsetInCU: 0x826C, offset: 0x826C, size: 0x8, addend: 0x0, symName: __ZNSt3__118__constexpr_strlenB7v160006EPKc, symObjAddr: 0x5210, symBinAddr: 0x1000076F0, symSize: 0x24 }
  - { offsetInCU: 0x83A9, offset: 0x83A9, size: 0x8, addend: 0x0, symName: __ZSt28__throw_bad_array_new_lengthB7v160006v, symObjAddr: 0x38F4, symBinAddr: 0x100005DD4, symSize: 0x34 }
  - { offsetInCU: 0xAADA, offset: 0xAADA, size: 0x8, addend: 0x0, symName: __Z13insertIntoBSTP4Nodei, symObjAddr: 0x0, symBinAddr: 0x1000024E0, symSize: 0xE8 }
  - { offsetInCU: 0xAB15, offset: 0xAB15, size: 0x8, addend: 0x0, symName: __ZN4NodeC1Ei, symObjAddr: 0xE8, symBinAddr: 0x1000025C8, symSize: 0x34 }
  - { offsetInCU: 0xAB4D, offset: 0xAB4D, size: 0x8, addend: 0x0, symName: __Z9takeInputRP4Node, symObjAddr: 0x11C, symBinAddr: 0x1000025FC, symSize: 0x78 }
  - { offsetInCU: 0xAB84, offset: 0xAB84, size: 0x8, addend: 0x0, symName: __Z19levelOrderTraversalP4Node, symObjAddr: 0x194, symBinAddr: 0x100002674, symSize: 0x1DC }
  - { offsetInCU: 0xABFC, offset: 0xABFC, size: 0x8, addend: 0x0, symName: __ZNSt3__15queueIP4NodeNS_5dequeIS2_NS_9allocatorIS2_EEEEEC1B7v160006Ev, symObjAddr: 0x370, symBinAddr: 0x100002850, symSize: 0x2C }
  - { offsetInCU: 0xAC26, offset: 0xAC26, size: 0x8, addend: 0x0, symName: __ZNSt3__15queueIP4NodeNS_5dequeIS2_NS_9allocatorIS2_EEEEE4pushB7v160006ERKS2_, symObjAddr: 0x39C, symBinAddr: 0x10000287C, symSize: 0x2C }
  - { offsetInCU: 0xAC5B, offset: 0xAC5B, size: 0x8, addend: 0x0, symName: __ZNKSt3__15queueIP4NodeNS_5dequeIS2_NS_9allocatorIS2_EEEEE5emptyB7v160006Ev, symObjAddr: 0x3C8, symBinAddr: 0x1000028A8, symSize: 0x28 }
  - { offsetInCU: 0xAC81, offset: 0xAC81, size: 0x8, addend: 0x0, symName: __ZNSt3__15queueIP4NodeNS_5dequeIS2_NS_9allocatorIS2_EEEEE5frontB7v160006Ev, symObjAddr: 0x3F0, symBinAddr: 0x1000028D0, symSize: 0x24 }
  - { offsetInCU: 0xACA7, offset: 0xACA7, size: 0x8, addend: 0x0, symName: __ZNSt3__15queueIP4NodeNS_5dequeIS2_NS_9allocatorIS2_EEEEE3popB7v160006Ev, symObjAddr: 0x414, symBinAddr: 0x1000028F4, symSize: 0x24 }
  - { offsetInCU: 0xACCD, offset: 0xACCD, size: 0x8, addend: 0x0, symName: __ZNSt3__113basic_ostreamIcNS_11char_traitsIcEEElsB7v160006EPFRS3_S4_E, symObjAddr: 0x438, symBinAddr: 0x100002918, symSize: 0x2C }
  - { offsetInCU: 0xAD01, offset: 0xAD01, size: 0x8, addend: 0x0, symName: __ZNSt3__15queueIP4NodeNS_5dequeIS2_NS_9allocatorIS2_EEEEED1Ev, symObjAddr: 0x504, symBinAddr: 0x1000029E4, symSize: 0x2C }
  - { offsetInCU: 0xAD2E, offset: 0xAD2E, size: 0x8, addend: 0x0, symName: __Z7inorderP4Node, symObjAddr: 0x53C, symBinAddr: 0x100002A1C, symSize: 0x70 }
  - { offsetInCU: 0xAD57, offset: 0xAD57, size: 0x8, addend: 0x0, symName: __Z8preorderP4Node, symObjAddr: 0x5AC, symBinAddr: 0x100002A8C, symSize: 0x70 }
  - { offsetInCU: 0xAD80, offset: 0xAD80, size: 0x8, addend: 0x0, symName: __Z9postorderP4Node, symObjAddr: 0x61C, symBinAddr: 0x100002AFC, symSize: 0x70 }
  - { offsetInCU: 0xADA8, offset: 0xADA8, size: 0x8, addend: 0x0, symName: __Z7findMaxP4Node, symObjAddr: 0x68C, symBinAddr: 0x100002B6C, symSize: 0x78 }
  - { offsetInCU: 0xADE2, offset: 0xADE2, size: 0x8, addend: 0x0, symName: __Z15deleteNodeInBSTP4Nodei, symObjAddr: 0x704, symBinAddr: 0x100002BE4, symSize: 0x1CC }
  - { offsetInCU: 0xAE74, offset: 0xAE74, size: 0x8, addend: 0x0, symName: _main, symObjAddr: 0x8D0, symBinAddr: 0x100002DB0, symSize: 0x2A8 }
  - { offsetInCU: 0xAEC8, offset: 0xAEC8, size: 0x8, addend: 0x0, symName: __ZN4NodeC2Ei, symObjAddr: 0xB90, symBinAddr: 0x100003070, symSize: 0x28 }
  - { offsetInCU: 0xAF00, offset: 0xAF00, size: 0x8, addend: 0x0, symName: __ZNSt3__15queueIP4NodeNS_5dequeIS2_NS_9allocatorIS2_EEEEED2Ev, symObjAddr: 0xBB8, symBinAddr: 0x100003098, symSize: 0x2C }
  - { offsetInCU: 0xAF2D, offset: 0xAF2D, size: 0x8, addend: 0x0, symName: __ZNSt3__15dequeIP4NodeNS_9allocatorIS2_EEED1B7v160006Ev, symObjAddr: 0xBE4, symBinAddr: 0x1000030C4, symSize: 0x2C }
  - { offsetInCU: 0xAF57, offset: 0xAF57, size: 0x8, addend: 0x0, symName: __ZNSt3__15dequeIP4NodeNS_9allocatorIS2_EEED2B7v160006Ev, symObjAddr: 0xC10, symBinAddr: 0x1000030F0, symSize: 0x9C }
  - { offsetInCU: 0xAFAE, offset: 0xAFAE, size: 0x8, addend: 0x0, symName: __ZNSt3__15dequeIP4NodeNS_9allocatorIS2_EEE5clearEv, symObjAddr: 0xCAC, symBinAddr: 0x10000318C, symSize: 0x194 }
  - { offsetInCU: 0xB012, offset: 0xB012, size: 0x8, addend: 0x0, symName: __ZNSt3__114__split_bufferIPP4NodeNS_9allocatorIS3_EEE5beginB7v160006Ev, symObjAddr: 0xE40, symBinAddr: 0x100003320, symSize: 0x18 }
  - { offsetInCU: 0xB038, offset: 0xB038, size: 0x8, addend: 0x0, symName: __ZNSt3__114__split_bufferIPP4NodeNS_9allocatorIS3_EEE3endB7v160006Ev, symObjAddr: 0xE58, symBinAddr: 0x100003338, symSize: 0x18 }
  - { offsetInCU: 0xB05E, offset: 0xB05E, size: 0x8, addend: 0x0, symName: __ZNSt3__116allocator_traitsINS_9allocatorIP4NodeEEE10deallocateB7v160006ERS4_PS3_m, symObjAddr: 0xE70, symBinAddr: 0x100003350, symSize: 0x34 }
  - { offsetInCU: 0xB0A0, offset: 0xB0A0, size: 0x8, addend: 0x0, symName: __ZNSt3__15dequeIP4NodeNS_9allocatorIS2_EEE7__allocB7v160006Ev, symObjAddr: 0xEA4, symBinAddr: 0x100003384, symSize: 0x28 }
  - { offsetInCU: 0xB0C6, offset: 0xB0C6, size: 0x8, addend: 0x0, symName: __ZNSt3__114__split_bufferIPP4NodeNS_9allocatorIS3_EEED1Ev, symObjAddr: 0xECC, symBinAddr: 0x1000033AC, symSize: 0x2C }
  - { offsetInCU: 0xB0F2, offset: 0xB0F2, size: 0x8, addend: 0x0, symName: __ZNSt3__15dequeIP4NodeNS_9allocatorIS2_EEE5beginB7v160006Ev, symObjAddr: 0xEF8, symBinAddr: 0x1000033D8, symSize: 0xCC }
  - { offsetInCU: 0xB127, offset: 0xB127, size: 0x8, addend: 0x0, symName: __ZNSt3__15dequeIP4NodeNS_9allocatorIS2_EEE3endB7v160006Ev, symObjAddr: 0xFC4, symBinAddr: 0x1000034A4, symSize: 0xBC }
  - { offsetInCU: 0xB16B, offset: 0xB16B, size: 0x8, addend: 0x0, symName: __ZNSt3__116allocator_traitsINS_9allocatorIP4NodeEEE7destroyB7v160006IS3_vEEvRS4_PT_, symObjAddr: 0x10B4, symBinAddr: 0x100003594, symSize: 0x2C }
  - { offsetInCU: 0xB1A8, offset: 0xB1A8, size: 0x8, addend: 0x0, symName: __ZNKSt3__116__deque_iteratorIP4NodePS2_RS2_PS3_lLl512EEdeB7v160006Ev, symObjAddr: 0x10E0, symBinAddr: 0x1000035C0, symSize: 0x18 }
  - { offsetInCU: 0xB1CE, offset: 0xB1CE, size: 0x8, addend: 0x0, symName: __ZNSt3__116__deque_iteratorIP4NodePS2_RS2_PS3_lLl512EEppB7v160006Ev, symObjAddr: 0x10F8, symBinAddr: 0x1000035D8, symSize: 0x70 }
  - { offsetInCU: 0xB1F4, offset: 0xB1F4, size: 0x8, addend: 0x0, symName: __ZNSt3__15dequeIP4NodeNS_9allocatorIS2_EEE6__sizeB7v160006Ev, symObjAddr: 0x1168, symBinAddr: 0x100003648, symSize: 0x28 }
  - { offsetInCU: 0xB21A, offset: 0xB21A, size: 0x8, addend: 0x0, symName: __ZNKSt3__114__split_bufferIPP4NodeNS_9allocatorIS3_EEE4sizeB7v160006Ev, symObjAddr: 0x1190, symBinAddr: 0x100003670, symSize: 0x28 }
  - { offsetInCU: 0xB240, offset: 0xB240, size: 0x8, addend: 0x0, symName: __ZNSt3__114__split_bufferIPP4NodeNS_9allocatorIS3_EEE5frontB7v160006Ev, symObjAddr: 0x11B8, symBinAddr: 0x100003698, symSize: 0x18 }
  - { offsetInCU: 0xB266, offset: 0xB266, size: 0x8, addend: 0x0, symName: __ZNSt3__114__split_bufferIPP4NodeNS_9allocatorIS3_EEE9pop_frontB7v160006Ev, symObjAddr: 0x11D0, symBinAddr: 0x1000036B0, symSize: 0x2C }
  - { offsetInCU: 0xB28C, offset: 0xB28C, size: 0x8, addend: 0x0, symName: __ZNKSt3__114__split_bufferIPP4NodeNS_9allocatorIS3_EEE5emptyB7v160006Ev, symObjAddr: 0x11FC, symBinAddr: 0x1000036DC, symSize: 0x28 }
  - { offsetInCU: 0xB2B2, offset: 0xB2B2, size: 0x8, addend: 0x0, symName: __ZNSt3__116__deque_iteratorIP4NodePS2_RS2_PS3_lLl512EEC1B7v160006ES5_S3_, symObjAddr: 0x1224, symBinAddr: 0x100003704, symSize: 0x3C }
  - { offsetInCU: 0xB2FA, offset: 0xB2FA, size: 0x8, addend: 0x0, symName: __ZNSt3__116__deque_iteratorIP4NodePS2_RS2_PS3_lLl512EEC2B7v160006ES5_S3_, symObjAddr: 0x1260, symBinAddr: 0x100003740, symSize: 0x2C }
  - { offsetInCU: 0xB342, offset: 0xB342, size: 0x8, addend: 0x0, symName: __ZNKSt3__15dequeIP4NodeNS_9allocatorIS2_EEE4sizeB7v160006Ev, symObjAddr: 0x128C, symBinAddr: 0x10000376C, symSize: 0x28 }
  - { offsetInCU: 0xB368, offset: 0xB368, size: 0x8, addend: 0x0, symName: __ZNKSt3__15dequeIP4NodeNS_9allocatorIS2_EEE6__sizeB7v160006Ev, symObjAddr: 0x12B4, symBinAddr: 0x100003794, symSize: 0x28 }
  - { offsetInCU: 0xB38E, offset: 0xB38E, size: 0x8, addend: 0x0, symName: __ZNKSt3__117__compressed_pairImNS_9allocatorIP4NodeEEE5firstB7v160006Ev, symObjAddr: 0x12DC, symBinAddr: 0x1000037BC, symSize: 0x24 }
  - { offsetInCU: 0xB3B4, offset: 0xB3B4, size: 0x8, addend: 0x0, symName: __ZNKSt3__122__compressed_pair_elemImLi0ELb0EE5__getB7v160006Ev, symObjAddr: 0x1300, symBinAddr: 0x1000037E0, symSize: 0x14 }
  - { offsetInCU: 0xB3DA, offset: 0xB3DA, size: 0x8, addend: 0x0, symName: __ZNSt3__19allocatorIP4NodeE7destroyB7v160006EPS2_, symObjAddr: 0x1344, symBinAddr: 0x100003824, symSize: 0x14 }
  - { offsetInCU: 0xB40E, offset: 0xB40E, size: 0x8, addend: 0x0, symName: __ZNSt3__117__compressed_pairImNS_9allocatorIP4NodeEEE5firstB7v160006Ev, symObjAddr: 0x1358, symBinAddr: 0x100003838, symSize: 0x24 }
  - { offsetInCU: 0xB434, offset: 0xB434, size: 0x8, addend: 0x0, symName: __ZNSt3__122__compressed_pair_elemImLi0ELb0EE5__getB7v160006Ev, symObjAddr: 0x137C, symBinAddr: 0x10000385C, symSize: 0x14 }
  - { offsetInCU: 0xB45A, offset: 0xB45A, size: 0x8, addend: 0x0, symName: __ZNSt3__114__split_bufferIPP4NodeNS_9allocatorIS3_EEE19__destruct_at_beginB7v160006EPS3_, symObjAddr: 0x1390, symBinAddr: 0x100003870, symSize: 0x2C }
  - { offsetInCU: 0xB48E, offset: 0xB48E, size: 0x8, addend: 0x0, symName: __ZNSt3__114__split_bufferIPP4NodeNS_9allocatorIS3_EEE19__destruct_at_beginEPS3_NS_17integral_constantIbLb1EEE, symObjAddr: 0x13BC, symBinAddr: 0x10000389C, symSize: 0x20 }
  - { offsetInCU: 0xB4CE, offset: 0xB4CE, size: 0x8, addend: 0x0, symName: __ZNSt3__19allocatorIP4NodeE10deallocateB7v160006EPS2_m, symObjAddr: 0x13DC, symBinAddr: 0x1000038BC, symSize: 0x70 }
  - { offsetInCU: 0xB510, offset: 0xB510, size: 0x8, addend: 0x0, symName: __ZNSt3__117__compressed_pairImNS_9allocatorIP4NodeEEE6secondB7v160006Ev, symObjAddr: 0x14D4, symBinAddr: 0x1000039B4, symSize: 0x24 }
  - { offsetInCU: 0xB536, offset: 0xB536, size: 0x8, addend: 0x0, symName: __ZNSt3__122__compressed_pair_elemINS_9allocatorIP4NodeEELi1ELb1EE5__getB7v160006Ev, symObjAddr: 0x14F8, symBinAddr: 0x1000039D8, symSize: 0x14 }
  - { offsetInCU: 0xB55C, offset: 0xB55C, size: 0x8, addend: 0x0, symName: __ZNSt3__114__split_bufferIPP4NodeNS_9allocatorIS3_EEED2Ev, symObjAddr: 0x150C, symBinAddr: 0x1000039EC, symSize: 0x80 }
  - { offsetInCU: 0xB588, offset: 0xB588, size: 0x8, addend: 0x0, symName: __ZNSt3__114__split_bufferIPP4NodeNS_9allocatorIS3_EEE5clearB7v160006Ev, symObjAddr: 0x158C, symBinAddr: 0x100003A6C, symSize: 0x28 }
  - { offsetInCU: 0xB5AE, offset: 0xB5AE, size: 0x8, addend: 0x0, symName: __ZNSt3__116allocator_traitsINS_9allocatorIPP4NodeEEE10deallocateB7v160006ERS5_PS4_m, symObjAddr: 0x15B4, symBinAddr: 0x100003A94, symSize: 0x34 }
  - { offsetInCU: 0xB5F0, offset: 0xB5F0, size: 0x8, addend: 0x0, symName: __ZNSt3__114__split_bufferIPP4NodeNS_9allocatorIS3_EEE7__allocB7v160006Ev, symObjAddr: 0x15E8, symBinAddr: 0x100003AC8, symSize: 0x28 }
  - { offsetInCU: 0xB616, offset: 0xB616, size: 0x8, addend: 0x0, symName: __ZNKSt3__114__split_bufferIPP4NodeNS_9allocatorIS3_EEE8capacityB7v160006Ev, symObjAddr: 0x1610, symBinAddr: 0x100003AF0, symSize: 0x40 }
  - { offsetInCU: 0xB63C, offset: 0xB63C, size: 0x8, addend: 0x0, symName: __ZNSt3__114__split_bufferIPP4NodeNS_9allocatorIS3_EEE17__destruct_at_endB7v160006EPS3_, symObjAddr: 0x1650, symBinAddr: 0x100003B30, symSize: 0x2C }
  - { offsetInCU: 0xB670, offset: 0xB670, size: 0x8, addend: 0x0, symName: __ZNSt3__114__split_bufferIPP4NodeNS_9allocatorIS3_EEE17__destruct_at_endB7v160006EPS3_NS_17integral_constantIbLb0EEE, symObjAddr: 0x167C, symBinAddr: 0x100003B5C, symSize: 0x94 }
  - { offsetInCU: 0xB6B0, offset: 0xB6B0, size: 0x8, addend: 0x0, symName: __ZNSt3__116allocator_traitsINS_9allocatorIPP4NodeEEE7destroyB7v160006IS4_vEEvRS5_PT_, symObjAddr: 0x1710, symBinAddr: 0x100003BF0, symSize: 0x2C }
  - { offsetInCU: 0xB6ED, offset: 0xB6ED, size: 0x8, addend: 0x0, symName: __ZNSt3__19allocatorIPP4NodeE7destroyB7v160006EPS3_, symObjAddr: 0x1750, symBinAddr: 0x100003C30, symSize: 0x14 }
  - { offsetInCU: 0xB721, offset: 0xB721, size: 0x8, addend: 0x0, symName: __ZNSt3__19allocatorIPP4NodeE10deallocateB7v160006EPS3_m, symObjAddr: 0x1764, symBinAddr: 0x100003C44, symSize: 0x70 }
  - { offsetInCU: 0xB763, offset: 0xB763, size: 0x8, addend: 0x0, symName: __ZNSt3__117__compressed_pairIPPP4NodeNS_9allocatorIS3_EEE6secondB7v160006Ev, symObjAddr: 0x17D4, symBinAddr: 0x100003CB4, symSize: 0x24 }
  - { offsetInCU: 0xB789, offset: 0xB789, size: 0x8, addend: 0x0, symName: __ZNSt3__122__compressed_pair_elemINS_9allocatorIPP4NodeEELi1ELb1EE5__getB7v160006Ev, symObjAddr: 0x17F8, symBinAddr: 0x100003CD8, symSize: 0x14 }
  - { offsetInCU: 0xB7AF, offset: 0xB7AF, size: 0x8, addend: 0x0, symName: __ZNKSt3__114__split_bufferIPP4NodeNS_9allocatorIS3_EEE9__end_capB7v160006Ev, symObjAddr: 0x180C, symBinAddr: 0x100003CEC, symSize: 0x28 }
  - { offsetInCU: 0xB7D5, offset: 0xB7D5, size: 0x8, addend: 0x0, symName: __ZNKSt3__117__compressed_pairIPPP4NodeNS_9allocatorIS3_EEE5firstB7v160006Ev, symObjAddr: 0x1834, symBinAddr: 0x100003D14, symSize: 0x24 }
  - { offsetInCU: 0xB7FB, offset: 0xB7FB, size: 0x8, addend: 0x0, symName: __ZNKSt3__122__compressed_pair_elemIPPP4NodeLi0ELb0EE5__getB7v160006Ev, symObjAddr: 0x1858, symBinAddr: 0x100003D38, symSize: 0x14 }
  - { offsetInCU: 0xB821, offset: 0xB821, size: 0x8, addend: 0x0, symName: __ZNSt3__15queueIP4NodeNS_5dequeIS2_NS_9allocatorIS2_EEEEEC2B7v160006Ev, symObjAddr: 0x186C, symBinAddr: 0x100003D4C, symSize: 0x2C }
  - { offsetInCU: 0xB84B, offset: 0xB84B, size: 0x8, addend: 0x0, symName: __ZNSt3__15dequeIP4NodeNS_9allocatorIS2_EEEC1B7v160006Ev, symObjAddr: 0x1898, symBinAddr: 0x100003D78, symSize: 0x2C }
  - { offsetInCU: 0xB875, offset: 0xB875, size: 0x8, addend: 0x0, symName: __ZNSt3__15dequeIP4NodeNS_9allocatorIS2_EEEC2B7v160006Ev, symObjAddr: 0x18C4, symBinAddr: 0x100003DA4, symSize: 0x78 }
  - { offsetInCU: 0xB89F, offset: 0xB89F, size: 0x8, addend: 0x0, symName: __ZNSt3__114__split_bufferIPP4NodeNS_9allocatorIS3_EEEC1Ev, symObjAddr: 0x193C, symBinAddr: 0x100003E1C, symSize: 0x2C }
  - { offsetInCU: 0xB8D5, offset: 0xB8D5, size: 0x8, addend: 0x0, symName: __ZNSt3__117__compressed_pairImNS_9allocatorIP4NodeEEEC1B7v160006IiNS_18__default_init_tagEEEOT_OT0_, symObjAddr: 0x1968, symBinAddr: 0x100003E48, symSize: 0x3C }
  - { offsetInCU: 0xB92D, offset: 0xB92D, size: 0x8, addend: 0x0, symName: __ZNSt3__114__split_bufferIPP4NodeNS_9allocatorIS3_EEEC2Ev, symObjAddr: 0x19A4, symBinAddr: 0x100003E84, symSize: 0x48 }
  - { offsetInCU: 0xB95E, offset: 0xB95E, size: 0x8, addend: 0x0, symName: __ZNSt3__117__compressed_pairIPPP4NodeNS_9allocatorIS3_EEEC1B7v160006IDnNS_18__default_init_tagEEEOT_OT0_, symObjAddr: 0x19EC, symBinAddr: 0x100003ECC, symSize: 0x3C }
  - { offsetInCU: 0xB9B6, offset: 0xB9B6, size: 0x8, addend: 0x0, symName: __ZNSt3__117__compressed_pairIPPP4NodeNS_9allocatorIS3_EEEC2B7v160006IDnNS_18__default_init_tagEEEOT_OT0_, symObjAddr: 0x1A28, symBinAddr: 0x100003F08, symSize: 0x40 }
  - { offsetInCU: 0xBA0E, offset: 0xBA0E, size: 0x8, addend: 0x0, symName: __ZNSt3__122__compressed_pair_elemIPPP4NodeLi0ELb0EEC2B7v160006IDnvEEOT_, symObjAddr: 0x1A68, symBinAddr: 0x100003F48, symSize: 0x1C }
  - { offsetInCU: 0xBA50, offset: 0xBA50, size: 0x8, addend: 0x0, symName: __ZNSt3__122__compressed_pair_elemINS_9allocatorIPP4NodeEELi1ELb1EEC2B7v160006ENS_18__default_init_tagE, symObjAddr: 0x1A84, symBinAddr: 0x100003F64, symSize: 0x2C }
  - { offsetInCU: 0xBA84, offset: 0xBA84, size: 0x8, addend: 0x0, symName: __ZNSt3__19allocatorIPP4NodeEC2B7v160006Ev, symObjAddr: 0x1AB0, symBinAddr: 0x100003F90, symSize: 0x2C }
  - { offsetInCU: 0xBAAE, offset: 0xBAAE, size: 0x8, addend: 0x0, symName: __ZNSt3__116__non_trivial_ifILb1ENS_9allocatorIPP4NodeEEEC2B7v160006Ev, symObjAddr: 0x1ADC, symBinAddr: 0x100003FBC, symSize: 0x14 }
  - { offsetInCU: 0xBAD8, offset: 0xBAD8, size: 0x8, addend: 0x0, symName: __ZNSt3__117__compressed_pairImNS_9allocatorIP4NodeEEEC2B7v160006IiNS_18__default_init_tagEEEOT_OT0_, symObjAddr: 0x1AF0, symBinAddr: 0x100003FD0, symSize: 0x40 }
  - { offsetInCU: 0xBB30, offset: 0xBB30, size: 0x8, addend: 0x0, symName: __ZNSt3__122__compressed_pair_elemImLi0ELb0EEC2B7v160006IivEEOT_, symObjAddr: 0x1B30, symBinAddr: 0x100004010, symSize: 0x24 }
  - { offsetInCU: 0xBB72, offset: 0xBB72, size: 0x8, addend: 0x0, symName: __ZNSt3__122__compressed_pair_elemINS_9allocatorIP4NodeEELi1ELb1EEC2B7v160006ENS_18__default_init_tagE, symObjAddr: 0x1B54, symBinAddr: 0x100004034, symSize: 0x2C }
  - { offsetInCU: 0xBBA6, offset: 0xBBA6, size: 0x8, addend: 0x0, symName: __ZNSt3__19allocatorIP4NodeEC2B7v160006Ev, symObjAddr: 0x1B80, symBinAddr: 0x100004060, symSize: 0x2C }
  - { offsetInCU: 0xBBD0, offset: 0xBBD0, size: 0x8, addend: 0x0, symName: __ZNSt3__116__non_trivial_ifILb1ENS_9allocatorIP4NodeEEEC2B7v160006Ev, symObjAddr: 0x1BAC, symBinAddr: 0x10000408C, symSize: 0x14 }
  - { offsetInCU: 0xBBFA, offset: 0xBBFA, size: 0x8, addend: 0x0, symName: __ZNSt3__15dequeIP4NodeNS_9allocatorIS2_EEE9push_backERKS2_, symObjAddr: 0x1BC0, symBinAddr: 0x1000040A0, symSize: 0xA0 }
  - { offsetInCU: 0xBC40, offset: 0xBC40, size: 0x8, addend: 0x0, symName: __ZNKSt3__15dequeIP4NodeNS_9allocatorIS2_EEE12__back_spareB7v160006Ev, symObjAddr: 0x1C60, symBinAddr: 0x100004140, symSize: 0x54 }
  - { offsetInCU: 0xBC66, offset: 0xBC66, size: 0x8, addend: 0x0, symName: __ZNSt3__15dequeIP4NodeNS_9allocatorIS2_EEE19__add_back_capacityEv, symObjAddr: 0x1CB4, symBinAddr: 0x100004194, symSize: 0x32C }
  - { offsetInCU: 0xBD1E, offset: 0xBD1E, size: 0x8, addend: 0x0, symName: __ZNSt3__116allocator_traitsINS_9allocatorIP4NodeEEE9constructB7v160006IS3_JRKS3_EvEEvRS4_PT_DpOT0_, symObjAddr: 0x1FE0, symBinAddr: 0x1000044C0, symSize: 0x34 }
  - { offsetInCU: 0xBD75, offset: 0xBD75, size: 0x8, addend: 0x0, symName: __ZNKSt3__15dequeIP4NodeNS_9allocatorIS2_EEE10__capacityB7v160006Ev, symObjAddr: 0x2014, symBinAddr: 0x1000044F4, symSize: 0x60 }
  - { offsetInCU: 0xBD9B, offset: 0xBD9B, size: 0x8, addend: 0x0, symName: __ZNKSt3__15dequeIP4NodeNS_9allocatorIS2_EEE13__front_spareB7v160006Ev, symObjAddr: 0x2074, symBinAddr: 0x100004554, symSize: 0x18 }
  - { offsetInCU: 0xBDC1, offset: 0xBDC1, size: 0x8, addend: 0x0, symName: __ZNSt3__114__split_bufferIPP4NodeNS_9allocatorIS3_EEE9push_backB7v160006ERKS3_, symObjAddr: 0x208C, symBinAddr: 0x10000456C, symSize: 0x270 }
  - { offsetInCU: 0xBE3A, offset: 0xBE3A, size: 0x8, addend: 0x0, symName: __ZNKSt3__114__split_bufferIPP4NodeNS_9allocatorIS3_EEE12__back_spareB7v160006Ev, symObjAddr: 0x22FC, symBinAddr: 0x1000047DC, symSize: 0x40 }
  - { offsetInCU: 0xBE60, offset: 0xBE60, size: 0x8, addend: 0x0, symName: __ZNSt3__114__split_bufferIPP4NodeNS_9allocatorIS3_EEE9push_backEOS3_, symObjAddr: 0x233C, symBinAddr: 0x10000481C, symSize: 0x270 }
  - { offsetInCU: 0xBED9, offset: 0xBED9, size: 0x8, addend: 0x0, symName: __ZNSt3__116allocator_traitsINS_9allocatorIP4NodeEEE8allocateB7v160006ERS4_m, symObjAddr: 0x25AC, symBinAddr: 0x100004A8C, symSize: 0x2C }
  - { offsetInCU: 0xBF0C, offset: 0xBF0C, size: 0x8, addend: 0x0, symName: __ZNSt3__114__split_bufferIPP4NodeNS_9allocatorIS3_EEE10push_frontEOS3_, symObjAddr: 0x25D8, symBinAddr: 0x100004AB8, symSize: 0x26C }
  - { offsetInCU: 0xBF85, offset: 0xBF85, size: 0x8, addend: 0x0, symName: __ZNSt3__114__split_bufferIPP4NodeRNS_9allocatorIS3_EEEC1EmmS6_, symObjAddr: 0x2870, symBinAddr: 0x100004D50, symSize: 0x44 }
  - { offsetInCU: 0xBFE0, offset: 0xBFE0, size: 0x8, addend: 0x0, symName: __ZNSt3__122__allocator_destructorINS_9allocatorIP4NodeEEEC1B7v160006ERS4_m, symObjAddr: 0x28B4, symBinAddr: 0x100004D94, symSize: 0x3C }
  - { offsetInCU: 0xC0A8, offset: 0xC0A8, size: 0x8, addend: 0x0, symName: __ZNSt3__110unique_ptrIPP4NodeNS_22__allocator_destructorINS_9allocatorIS2_EEEEEC1B7v160006ILb1EvEES3_NS_16__dependent_typeINS_27__unique_ptr_deleter_sfinaeIS7_EEXT_EE20__good_rval_ref_typeE, symObjAddr: 0x28F0, symBinAddr: 0x100004DD0, symSize: 0x3C }
  - { offsetInCU: 0xC0F9, offset: 0xC0F9, size: 0x8, addend: 0x0, symName: __ZNSt3__114__split_bufferIPP4NodeRNS_9allocatorIS3_EEE9push_backEOS3_, symObjAddr: 0x292C, symBinAddr: 0x100004E0C, symSize: 0x270 }
  - { offsetInCU: 0xC172, offset: 0xC172, size: 0x8, addend: 0x0, symName: __ZNKSt3__110unique_ptrIPP4NodeNS_22__allocator_destructorINS_9allocatorIS2_EEEEE3getB7v160006Ev, symObjAddr: 0x2B9C, symBinAddr: 0x10000507C, symSize: 0x28 }
  - { offsetInCU: 0xC198, offset: 0xC198, size: 0x8, addend: 0x0, symName: __ZNSt3__110unique_ptrIPP4NodeNS_22__allocator_destructorINS_9allocatorIS2_EEEEE7releaseB7v160006Ev, symObjAddr: 0x2BC4, symBinAddr: 0x1000050A4, symSize: 0x44 }
  - { offsetInCU: 0xC1CD, offset: 0xC1CD, size: 0x8, addend: 0x0, symName: __ZNSt3__114__split_bufferIPP4NodeRNS_9allocatorIS3_EEE10push_frontERKS3_, symObjAddr: 0x2C08, symBinAddr: 0x1000050E8, symSize: 0x26C }
  - { offsetInCU: 0xC246, offset: 0xC246, size: 0x8, addend: 0x0, symName: __ZNSt3__114__split_bufferIPP4NodeNS_9allocatorIS3_EEE9__end_capB7v160006Ev, symObjAddr: 0x2EB0, symBinAddr: 0x100005390, symSize: 0x28 }
  - { offsetInCU: 0xC26C, offset: 0xC26C, size: 0x8, addend: 0x0, symName: __ZNSt3__114__split_bufferIPP4NodeRNS_9allocatorIS3_EEE9__end_capB7v160006Ev, symObjAddr: 0x2ED8, symBinAddr: 0x1000053B8, symSize: 0x28 }
  - { offsetInCU: 0xC292, offset: 0xC292, size: 0x8, addend: 0x0, symName: __ZNSt3__110unique_ptrIPP4NodeNS_22__allocator_destructorINS_9allocatorIS2_EEEEED1B7v160006Ev, symObjAddr: 0x2F00, symBinAddr: 0x1000053E0, symSize: 0x2C }
  - { offsetInCU: 0xC2BC, offset: 0xC2BC, size: 0x8, addend: 0x0, symName: __ZNSt3__114__split_bufferIPP4NodeRNS_9allocatorIS3_EEED1Ev, symObjAddr: 0x2F2C, symBinAddr: 0x10000540C, symSize: 0x2C }
  - { offsetInCU: 0xC2E8, offset: 0xC2E8, size: 0x8, addend: 0x0, symName: __ZNSt3__114__split_bufferIPP4NodeRNS_9allocatorIS3_EEE18__construct_at_endINS_13move_iteratorIPS3_EEEENS_9enable_ifIXsr27__is_cpp17_forward_iteratorIT_EE5valueEvE4typeESD_SD_, symObjAddr: 0x2F98, symBinAddr: 0x100005478, symSize: 0x104 }
  - { offsetInCU: 0xC344, offset: 0xC344, size: 0x8, addend: 0x0, symName: __ZNSt3__113move_iteratorIPPP4NodeEC1B7v160006ES4_, symObjAddr: 0x309C, symBinAddr: 0x10000557C, symSize: 0x34 }
  - { offsetInCU: 0xC37C, offset: 0xC37C, size: 0x8, addend: 0x0, symName: __ZNSt3__116allocator_traitsINS_9allocatorIPP4NodeEEE9constructB7v160006IS4_JRKS4_EvEEvRS5_PT_DpOT0_, symObjAddr: 0x30D0, symBinAddr: 0x1000055B0, symSize: 0x34 }
  - { offsetInCU: 0xC3F6, offset: 0xC3F6, size: 0x8, addend: 0x0, symName: __ZNKSt3__114__move_trivialclB7v160006IPP4NodeS4_Li0EEENS_4pairIPT_PT0_EES7_S7_S9_, symObjAddr: 0x32B0, symBinAddr: 0x100005790, symSize: 0x48 }
  - { offsetInCU: 0xC45E, offset: 0xC45E, size: 0x8, addend: 0x0, symName: __ZNSt3__14pairIPPP4NodeS4_EC1B7v160006ERKS4_S7_, symObjAddr: 0x348C, symBinAddr: 0x10000596C, symSize: 0x3C }
  - { offsetInCU: 0xC4A4, offset: 0xC4A4, size: 0x8, addend: 0x0, symName: __ZNSt3__14pairIPPP4NodeS4_EC2B7v160006ERKS4_S7_, symObjAddr: 0x34C8, symBinAddr: 0x1000059A8, symSize: 0x34 }
  - { offsetInCU: 0xC4EA, offset: 0xC4EA, size: 0x8, addend: 0x0, symName: __ZNSt3__118__unwrap_iter_implIPPP4NodeLb1EE8__unwrapB7v160006ES4_, symObjAddr: 0x34FC, symBinAddr: 0x1000059DC, symSize: 0x24 }
  - { offsetInCU: 0xC50D, offset: 0xC50D, size: 0x8, addend: 0x0, symName: __ZNSt3__118__unwrap_iter_implIPPP4NodeLb1EE8__rewrapB7v160006ES4_S4_, symObjAddr: 0x3520, symBinAddr: 0x100005A00, symSize: 0x50 }
  - { offsetInCU: 0xC548, offset: 0xC548, size: 0x8, addend: 0x0, symName: __ZNSt3__114__split_bufferIPP4NodeRNS_9allocatorIS3_EEE21_ConstructTransactionC1B7v160006EPPS3_m, symObjAddr: 0x35AC, symBinAddr: 0x100005A8C, symSize: 0x3C }
  - { offsetInCU: 0xC58E, offset: 0xC58E, size: 0x8, addend: 0x0, symName: __ZNSt3__116allocator_traitsINS_9allocatorIPP4NodeEEE9constructB7v160006IS4_JS4_EvEEvRS5_PT_DpOT0_, symObjAddr: 0x35E8, symBinAddr: 0x100005AC8, symSize: 0x34 }
  - { offsetInCU: 0xC5E5, offset: 0xC5E5, size: 0x8, addend: 0x0, symName: __ZNSt3__114__split_bufferIPP4NodeRNS_9allocatorIS3_EEE7__allocB7v160006Ev, symObjAddr: 0x361C, symBinAddr: 0x100005AFC, symSize: 0x28 }
  - { offsetInCU: 0xC60B, offset: 0xC60B, size: 0x8, addend: 0x0, symName: __ZNKSt3__113move_iteratorIPPP4NodeEdeB7v160006Ev, symObjAddr: 0x3644, symBinAddr: 0x100005B24, symSize: 0x18 }
  - { offsetInCU: 0xC631, offset: 0xC631, size: 0x8, addend: 0x0, symName: __ZNSt3__113move_iteratorIPPP4NodeEppB7v160006Ev, symObjAddr: 0x365C, symBinAddr: 0x100005B3C, symSize: 0x20 }
  - { offsetInCU: 0xC657, offset: 0xC657, size: 0x8, addend: 0x0, symName: __ZNSt3__114__split_bufferIPP4NodeRNS_9allocatorIS3_EEE21_ConstructTransactionD1B7v160006Ev, symObjAddr: 0x367C, symBinAddr: 0x100005B5C, symSize: 0x2C }
  - { offsetInCU: 0xC681, offset: 0xC681, size: 0x8, addend: 0x0, symName: __ZNKSt3__113move_iteratorIPPP4NodeE4baseB7v160006Ev, symObjAddr: 0x3720, symBinAddr: 0x100005C00, symSize: 0x18 }
  - { offsetInCU: 0xC6A7, offset: 0xC6A7, size: 0x8, addend: 0x0, symName: __ZNSt3__114__split_bufferIPP4NodeRNS_9allocatorIS3_EEE21_ConstructTransactionC2B7v160006EPPS3_m, symObjAddr: 0x3738, symBinAddr: 0x100005C18, symSize: 0x44 }
  - { offsetInCU: 0xC6ED, offset: 0xC6ED, size: 0x8, addend: 0x0, symName: __ZNSt3__19allocatorIPP4NodeE9constructB7v160006IS3_JS3_EEEvPT_DpOT0_, symObjAddr: 0x377C, symBinAddr: 0x100005C5C, symSize: 0x28 }
  - { offsetInCU: 0xC743, offset: 0xC743, size: 0x8, addend: 0x0, symName: __ZNSt3__117__compressed_pairIPPP4NodeRNS_9allocatorIS3_EEE6secondB7v160006Ev, symObjAddr: 0x37A4, symBinAddr: 0x100005C84, symSize: 0x28 }
  - { offsetInCU: 0xC769, offset: 0xC769, size: 0x8, addend: 0x0, symName: __ZNSt3__122__compressed_pair_elemIRNS_9allocatorIPP4NodeEELi1ELb0EE5__getB7v160006Ev, symObjAddr: 0x37CC, symBinAddr: 0x100005CAC, symSize: 0x18 }
  - { offsetInCU: 0xC78F, offset: 0xC78F, size: 0x8, addend: 0x0, symName: __ZNSt3__114__split_bufferIPP4NodeRNS_9allocatorIS3_EEE21_ConstructTransactionD2B7v160006Ev, symObjAddr: 0x37E4, symBinAddr: 0x100005CC4, symSize: 0x20 }
  - { offsetInCU: 0xC7B9, offset: 0xC7B9, size: 0x8, addend: 0x0, symName: __ZNSt3__113move_iteratorIPPP4NodeEC2B7v160006ES4_, symObjAddr: 0x3804, symBinAddr: 0x100005CE4, symSize: 0x20 }
  - { offsetInCU: 0xC7F1, offset: 0xC7F1, size: 0x8, addend: 0x0, symName: __ZNSt3__19allocatorIPP4NodeE9constructB7v160006IS3_JRKS3_EEEvPT_DpOT0_, symObjAddr: 0x3824, symBinAddr: 0x100005D04, symSize: 0x28 }
  - { offsetInCU: 0xC847, offset: 0xC847, size: 0x8, addend: 0x0, symName: __ZNSt3__19allocatorIP4NodeE8allocateB7v160006Em, symObjAddr: 0x384C, symBinAddr: 0x100005D2C, symSize: 0x84 }
  - { offsetInCU: 0xC885, offset: 0xC885, size: 0x8, addend: 0x0, symName: __ZNSt3__116allocator_traitsINS_9allocatorIP4NodeEEE8max_sizeB7v160006IS4_vEEmRKS4_, symObjAddr: 0x38D0, symBinAddr: 0x100005DB0, symSize: 0x24 }
  - { offsetInCU: 0xC8B3, offset: 0xC8B3, size: 0x8, addend: 0x0, symName: __ZNKSt3__19allocatorIP4NodeE8max_sizeB7v160006Ev, symObjAddr: 0x3950, symBinAddr: 0x100005E30, symSize: 0x14 }
  - { offsetInCU: 0xC8E3, offset: 0xC8E3, size: 0x8, addend: 0x0, symName: __ZNKSt3__123__move_backward_trivialclB7v160006IPP4NodeS4_Li0EEENS_4pairIPT_PT0_EES7_S7_S9_, symObjAddr: 0x3B14, symBinAddr: 0x100005FF4, symSize: 0x48 }
  - { offsetInCU: 0xC955, offset: 0xC955, size: 0x8, addend: 0x0, symName: __ZNKSt3__16__lessImmEclB7v160006ERKmS3_, symObjAddr: 0x3C7C, symBinAddr: 0x10000615C, symSize: 0x34 }
  - { offsetInCU: 0xC997, offset: 0xC997, size: 0x8, addend: 0x0, symName: __ZNSt3__114__split_bufferIPP4NodeRNS_9allocatorIS3_EEEC2EmmS6_, symObjAddr: 0x3CB0, symBinAddr: 0x100006190, symSize: 0xD4 }
  - { offsetInCU: 0xCA0B, offset: 0xCA0B, size: 0x8, addend: 0x0, symName: __ZNSt3__117__compressed_pairIPPP4NodeRNS_9allocatorIS3_EEEC1B7v160006IDnS7_EEOT_OT0_, symObjAddr: 0x3D84, symBinAddr: 0x100006264, symSize: 0x3C }
  - { offsetInCU: 0xCA63, offset: 0xCA63, size: 0x8, addend: 0x0, symName: __ZNSt3__117__compressed_pairIPPP4NodeRNS_9allocatorIS3_EEEC2B7v160006IDnS7_EEOT_OT0_, symObjAddr: 0x3E00, symBinAddr: 0x1000062E0, symSize: 0x48 }
  - { offsetInCU: 0xCABB, offset: 0xCABB, size: 0x8, addend: 0x0, symName: __ZNSt3__122__compressed_pair_elemIRNS_9allocatorIPP4NodeEELi1ELb0EEC2B7v160006IS6_vEEOT_, symObjAddr: 0x3E48, symBinAddr: 0x100006328, symSize: 0x20 }
  - { offsetInCU: 0xCAFD, offset: 0xCAFD, size: 0x8, addend: 0x0, symName: __ZNSt3__19allocatorIPP4NodeE8allocateB7v160006Em, symObjAddr: 0x3E68, symBinAddr: 0x100006348, symSize: 0x84 }
  - { offsetInCU: 0xCB3B, offset: 0xCB3B, size: 0x8, addend: 0x0, symName: __ZNSt3__116allocator_traitsINS_9allocatorIPP4NodeEEE8max_sizeB7v160006IS5_vEEmRKS5_, symObjAddr: 0x3EEC, symBinAddr: 0x1000063CC, symSize: 0x24 }
  - { offsetInCU: 0xCB69, offset: 0xCB69, size: 0x8, addend: 0x0, symName: __ZNKSt3__19allocatorIPP4NodeE8max_sizeB7v160006Ev, symObjAddr: 0x3F10, symBinAddr: 0x1000063F0, symSize: 0x14 }
  - { offsetInCU: 0xCB8F, offset: 0xCB8F, size: 0x8, addend: 0x0, symName: __ZNSt3__122__allocator_destructorINS_9allocatorIP4NodeEEEC2B7v160006ERS4_m, symObjAddr: 0x3F24, symBinAddr: 0x100006404, symSize: 0x2C }
  - { offsetInCU: 0xCBD5, offset: 0xCBD5, size: 0x8, addend: 0x0, symName: __ZNSt3__110unique_ptrIPP4NodeNS_22__allocator_destructorINS_9allocatorIS2_EEEEEC2B7v160006ILb1EvEES3_NS_16__dependent_typeINS_27__unique_ptr_deleter_sfinaeIS7_EEXT_EE20__good_rval_ref_typeE, symObjAddr: 0x3F50, symBinAddr: 0x100006430, symSize: 0x5C }
  - { offsetInCU: 0xCC26, offset: 0xCC26, size: 0x8, addend: 0x0, symName: __ZNSt3__117__compressed_pairIPP4NodeNS_22__allocator_destructorINS_9allocatorIS2_EEEEEC1B7v160006IRS3_S7_EEOT_OT0_, symObjAddr: 0x3FAC, symBinAddr: 0x10000648C, symSize: 0x3C }
  - { offsetInCU: 0xCC7E, offset: 0xCC7E, size: 0x8, addend: 0x0, symName: __ZNSt3__117__compressed_pairIPP4NodeNS_22__allocator_destructorINS_9allocatorIS2_EEEEEC2B7v160006IRS3_S7_EEOT_OT0_, symObjAddr: 0x3FE8, symBinAddr: 0x1000064C8, symSize: 0x48 }
  - { offsetInCU: 0xCCD6, offset: 0xCCD6, size: 0x8, addend: 0x0, symName: __ZNSt3__122__compressed_pair_elemIPP4NodeLi0ELb0EEC2B7v160006IRS3_vEEOT_, symObjAddr: 0x4030, symBinAddr: 0x100006510, symSize: 0x24 }
  - { offsetInCU: 0xCD18, offset: 0xCD18, size: 0x8, addend: 0x0, symName: __ZNSt3__122__compressed_pair_elemINS_22__allocator_destructorINS_9allocatorIP4NodeEEEELi1ELb0EEC2B7v160006IS6_vEEOT_, symObjAddr: 0x4054, symBinAddr: 0x100006534, symSize: 0x24 }
  - { offsetInCU: 0xCD5A, offset: 0xCD5A, size: 0x8, addend: 0x0, symName: __ZNKSt3__117__compressed_pairIPP4NodeNS_22__allocator_destructorINS_9allocatorIS2_EEEEE5firstB7v160006Ev, symObjAddr: 0x4078, symBinAddr: 0x100006558, symSize: 0x24 }
  - { offsetInCU: 0xCD80, offset: 0xCD80, size: 0x8, addend: 0x0, symName: __ZNKSt3__122__compressed_pair_elemIPP4NodeLi0ELb0EE5__getB7v160006Ev, symObjAddr: 0x409C, symBinAddr: 0x10000657C, symSize: 0x14 }
  - { offsetInCU: 0xCDA6, offset: 0xCDA6, size: 0x8, addend: 0x0, symName: __ZNSt3__117__compressed_pairIPP4NodeNS_22__allocator_destructorINS_9allocatorIS2_EEEEE5firstB7v160006Ev, symObjAddr: 0x40B0, symBinAddr: 0x100006590, symSize: 0x24 }
  - { offsetInCU: 0xCDCC, offset: 0xCDCC, size: 0x8, addend: 0x0, symName: __ZNSt3__122__compressed_pair_elemIPP4NodeLi0ELb0EE5__getB7v160006Ev, symObjAddr: 0x40D4, symBinAddr: 0x1000065B4, symSize: 0x14 }
  - { offsetInCU: 0xCDF2, offset: 0xCDF2, size: 0x8, addend: 0x0, symName: __ZNSt3__117__compressed_pairIPPP4NodeNS_9allocatorIS3_EEE5firstB7v160006Ev, symObjAddr: 0x40E8, symBinAddr: 0x1000065C8, symSize: 0x24 }
  - { offsetInCU: 0xCE18, offset: 0xCE18, size: 0x8, addend: 0x0, symName: __ZNSt3__122__compressed_pair_elemIPPP4NodeLi0ELb0EE5__getB7v160006Ev, symObjAddr: 0x410C, symBinAddr: 0x1000065EC, symSize: 0x14 }
  - { offsetInCU: 0xCE3E, offset: 0xCE3E, size: 0x8, addend: 0x0, symName: __ZNSt3__117__compressed_pairIPPP4NodeRNS_9allocatorIS3_EEE5firstB7v160006Ev, symObjAddr: 0x4120, symBinAddr: 0x100006600, symSize: 0x24 }
  - { offsetInCU: 0xCE64, offset: 0xCE64, size: 0x8, addend: 0x0, symName: __ZNSt3__110unique_ptrIPP4NodeNS_22__allocator_destructorINS_9allocatorIS2_EEEEED2B7v160006Ev, symObjAddr: 0x4144, symBinAddr: 0x100006624, symSize: 0x30 }
  - { offsetInCU: 0xCE8E, offset: 0xCE8E, size: 0x8, addend: 0x0, symName: __ZNSt3__110unique_ptrIPP4NodeNS_22__allocator_destructorINS_9allocatorIS2_EEEEE5resetB7v160006ES3_, symObjAddr: 0x4174, symBinAddr: 0x100006654, symSize: 0x78 }
  - { offsetInCU: 0xCED2, offset: 0xCED2, size: 0x8, addend: 0x0, symName: __ZNSt3__117__compressed_pairIPP4NodeNS_22__allocator_destructorINS_9allocatorIS2_EEEEE6secondB7v160006Ev, symObjAddr: 0x41EC, symBinAddr: 0x1000066CC, symSize: 0x28 }
  - { offsetInCU: 0xCEF8, offset: 0xCEF8, size: 0x8, addend: 0x0, symName: __ZNSt3__122__allocator_destructorINS_9allocatorIP4NodeEEEclB7v160006EPS3_, symObjAddr: 0x4214, symBinAddr: 0x1000066F4, symSize: 0x34 }
  - { offsetInCU: 0xCF2C, offset: 0xCF2C, size: 0x8, addend: 0x0, symName: __ZNSt3__122__compressed_pair_elemINS_22__allocator_destructorINS_9allocatorIP4NodeEEEELi1ELb0EE5__getB7v160006Ev, symObjAddr: 0x4248, symBinAddr: 0x100006728, symSize: 0x14 }
  - { offsetInCU: 0xCF52, offset: 0xCF52, size: 0x8, addend: 0x0, symName: __ZNSt3__114__split_bufferIPP4NodeRNS_9allocatorIS3_EEED2Ev, symObjAddr: 0x425C, symBinAddr: 0x10000673C, symSize: 0x80 }
  - { offsetInCU: 0xCF7E, offset: 0xCF7E, size: 0x8, addend: 0x0, symName: __ZNSt3__114__split_bufferIPP4NodeRNS_9allocatorIS3_EEE5clearB7v160006Ev, symObjAddr: 0x42DC, symBinAddr: 0x1000067BC, symSize: 0x28 }
  - { offsetInCU: 0xCFA4, offset: 0xCFA4, size: 0x8, addend: 0x0, symName: __ZNKSt3__114__split_bufferIPP4NodeRNS_9allocatorIS3_EEE8capacityB7v160006Ev, symObjAddr: 0x4304, symBinAddr: 0x1000067E4, symSize: 0x40 }
  - { offsetInCU: 0xCFCA, offset: 0xCFCA, size: 0x8, addend: 0x0, symName: __ZNSt3__114__split_bufferIPP4NodeRNS_9allocatorIS3_EEE17__destruct_at_endB7v160006EPS3_, symObjAddr: 0x4344, symBinAddr: 0x100006824, symSize: 0x2C }
  - { offsetInCU: 0xCFFE, offset: 0xCFFE, size: 0x8, addend: 0x0, symName: __ZNSt3__114__split_bufferIPP4NodeRNS_9allocatorIS3_EEE17__destruct_at_endB7v160006EPS3_NS_17integral_constantIbLb0EEE, symObjAddr: 0x4370, symBinAddr: 0x100006850, symSize: 0x94 }
  - { offsetInCU: 0xD03E, offset: 0xD03E, size: 0x8, addend: 0x0, symName: __ZNKSt3__114__split_bufferIPP4NodeRNS_9allocatorIS3_EEE9__end_capB7v160006Ev, symObjAddr: 0x4404, symBinAddr: 0x1000068E4, symSize: 0x28 }
  - { offsetInCU: 0xD064, offset: 0xD064, size: 0x8, addend: 0x0, symName: __ZNKSt3__117__compressed_pairIPPP4NodeRNS_9allocatorIS3_EEE5firstB7v160006Ev, symObjAddr: 0x442C, symBinAddr: 0x10000690C, symSize: 0x24 }
  - { offsetInCU: 0xD08A, offset: 0xD08A, size: 0x8, addend: 0x0, symName: __ZNSt3__19allocatorIP4NodeE9constructB7v160006IS2_JRKS2_EEEvPT_DpOT0_, symObjAddr: 0x4450, symBinAddr: 0x100006930, symSize: 0x28 }
  - { offsetInCU: 0xD0E0, offset: 0xD0E0, size: 0x8, addend: 0x0, symName: __ZNKSt3__15dequeIP4NodeNS_9allocatorIS2_EEE5emptyB7v160006Ev, symObjAddr: 0x4478, symBinAddr: 0x100006958, symSize: 0x30 }
  - { offsetInCU: 0xD106, offset: 0xD106, size: 0x8, addend: 0x0, symName: __ZNSt3__15dequeIP4NodeNS_9allocatorIS2_EEE5frontEv, symObjAddr: 0x44A8, symBinAddr: 0x100006988, symSize: 0x50 }
  - { offsetInCU: 0xD12E, offset: 0xD12E, size: 0x8, addend: 0x0, symName: __ZNSt3__15dequeIP4NodeNS_9allocatorIS2_EEE9pop_frontEv, symObjAddr: 0x44F8, symBinAddr: 0x1000069D8, symSize: 0xAC }
  - { offsetInCU: 0xD165, offset: 0xD165, size: 0x8, addend: 0x0, symName: __ZNSt3__15dequeIP4NodeNS_9allocatorIS2_EEE26__maybe_remove_front_spareB7v160006Eb, symObjAddr: 0x45B8, symBinAddr: 0x100006A98, symSize: 0xDC }
  - { offsetInCU: 0xD19A, offset: 0xD19A, size: 0x8, addend: 0x0, symName: __ZNKSt3__15dequeIP4NodeNS_9allocatorIS2_EEE20__front_spare_blocksB7v160006Ev, symObjAddr: 0x4694, symBinAddr: 0x100006B74, symSize: 0x2C }
  - { offsetInCU: 0xD1C0, offset: 0xD1C0, size: 0x8, addend: 0x0, symName: __ZNKSt3__19basic_iosIcNS_11char_traitsIcEEE5widenB7v160006Ec, symObjAddr: 0x46C0, symBinAddr: 0x100006BA0, symSize: 0x8C }
  - { offsetInCU: 0xD22E, offset: 0xD22E, size: 0x8, addend: 0x0, symName: __ZNKSt3__15ctypeIcE5widenB7v160006Ec, symObjAddr: 0x4778, symBinAddr: 0x100006C58, symSize: 0x38 }
  - { offsetInCU: 0xD263, offset: 0xD263, size: 0x8, addend: 0x0, symName: __ZNSt3__111char_traitsIcE6lengthEPKc, symObjAddr: 0x49A4, symBinAddr: 0x100006E84, symSize: 0x48 }
  - { offsetInCU: 0xD2A4, offset: 0xD2A4, size: 0x8, addend: 0x0, symName: __ZNKSt3__113basic_ostreamIcNS_11char_traitsIcEEE6sentrycvbB7v160006Ev, symObjAddr: 0x49EC, symBinAddr: 0x100006ECC, symSize: 0x1C }
  - { offsetInCU: 0xD2CA, offset: 0xD2CA, size: 0x8, addend: 0x0, symName: __ZNSt3__119ostreambuf_iteratorIcNS_11char_traitsIcEEEC1B7v160006ERNS_13basic_ostreamIcS2_EE, symObjAddr: 0x4C50, symBinAddr: 0x100007130, symSize: 0x34 }
  - { offsetInCU: 0xD302, offset: 0xD302, size: 0x8, addend: 0x0, symName: __ZNKSt3__18ios_base5flagsB7v160006Ev, symObjAddr: 0x4C84, symBinAddr: 0x100007164, symSize: 0x18 }
  - { offsetInCU: 0xD32A, offset: 0xD32A, size: 0x8, addend: 0x0, symName: __ZNKSt3__19basic_iosIcNS_11char_traitsIcEEE4fillB7v160006Ev, symObjAddr: 0x4C9C, symBinAddr: 0x10000717C, symSize: 0x64 }
  - { offsetInCU: 0xD352, offset: 0xD352, size: 0x8, addend: 0x0, symName: __ZNKSt3__119ostreambuf_iteratorIcNS_11char_traitsIcEEE6failedB7v160006Ev, symObjAddr: 0x4D00, symBinAddr: 0x1000071E0, symSize: 0x24 }
  - { offsetInCU: 0xD378, offset: 0xD378, size: 0x8, addend: 0x0, symName: __ZNSt3__19basic_iosIcNS_11char_traitsIcEEE8setstateB7v160006Ej, symObjAddr: 0x4D24, symBinAddr: 0x100007204, symSize: 0x2C }
  - { offsetInCU: 0xD3AD, offset: 0xD3AD, size: 0x8, addend: 0x0, symName: __ZNKSt3__18ios_base5widthB7v160006Ev, symObjAddr: 0x4D50, symBinAddr: 0x100007230, symSize: 0x18 }
  - { offsetInCU: 0xD3D5, offset: 0xD3D5, size: 0x8, addend: 0x0, symName: __ZNSt3__115basic_streambufIcNS_11char_traitsIcEEE5sputnB7v160006EPKcl, symObjAddr: 0x4D68, symBinAddr: 0x100007248, symSize: 0x3C }
  - { offsetInCU: 0xD417, offset: 0xD417, size: 0x8, addend: 0x0, symName: __ZNSt3__112basic_stringIcNS_11char_traitsIcEENS_9allocatorIcEEEC1B7v160006Emc, symObjAddr: 0x4DA4, symBinAddr: 0x100007284, symSize: 0x3C }
  - { offsetInCU: 0xD45F, offset: 0xD45F, size: 0x8, addend: 0x0, symName: __ZNKSt3__112basic_stringIcNS_11char_traitsIcEENS_9allocatorIcEEE4dataB7v160006Ev, symObjAddr: 0x4DE0, symBinAddr: 0x1000072C0, symSize: 0x28 }
  - { offsetInCU: 0xD485, offset: 0xD485, size: 0x8, addend: 0x0, symName: __ZNSt3__18ios_base5widthB7v160006El, symObjAddr: 0x4E08, symBinAddr: 0x1000072E8, symSize: 0x2C }
  - { offsetInCU: 0xD4CB, offset: 0xD4CB, size: 0x8, addend: 0x0, symName: __ZNSt3__112basic_stringIcNS_11char_traitsIcEENS_9allocatorIcEEEC2B7v160006Emc, symObjAddr: 0x4E34, symBinAddr: 0x100007314, symSize: 0x54 }
  - { offsetInCU: 0xD513, offset: 0xD513, size: 0x8, addend: 0x0, symName: __ZNSt3__117__compressed_pairINS_12basic_stringIcNS_11char_traitsIcEENS_9allocatorIcEEE5__repES5_EC1B7v160006INS_18__default_init_tagESA_EEOT_OT0_, symObjAddr: 0x4E88, symBinAddr: 0x100007368, symSize: 0x3C }
  - { offsetInCU: 0xD56B, offset: 0xD56B, size: 0x8, addend: 0x0, symName: __ZNSt3__117__compressed_pairINS_12basic_stringIcNS_11char_traitsIcEENS_9allocatorIcEEE5__repES5_EC2B7v160006INS_18__default_init_tagESA_EEOT_OT0_, symObjAddr: 0x4ED4, symBinAddr: 0x1000073B4, symSize: 0x3C }
  - { offsetInCU: 0xD5C3, offset: 0xD5C3, size: 0x8, addend: 0x0, symName: __ZNSt3__122__compressed_pair_elemINS_12basic_stringIcNS_11char_traitsIcEENS_9allocatorIcEEE5__repELi0ELb0EEC2B7v160006ENS_18__default_init_tagE, symObjAddr: 0x4F10, symBinAddr: 0x1000073F0, symSize: 0x14 }
  - { offsetInCU: 0xD5F7, offset: 0xD5F7, size: 0x8, addend: 0x0, symName: __ZNSt3__122__compressed_pair_elemINS_9allocatorIcEELi1ELb1EEC2B7v160006ENS_18__default_init_tagE, symObjAddr: 0x4F24, symBinAddr: 0x100007404, symSize: 0x2C }
  - { offsetInCU: 0xD62B, offset: 0xD62B, size: 0x8, addend: 0x0, symName: __ZNSt3__19allocatorIcEC2B7v160006Ev, symObjAddr: 0x4F50, symBinAddr: 0x100007430, symSize: 0x2C }
  - { offsetInCU: 0xD655, offset: 0xD655, size: 0x8, addend: 0x0, symName: __ZNSt3__116__non_trivial_ifILb1ENS_9allocatorIcEEEC2B7v160006Ev, symObjAddr: 0x4F7C, symBinAddr: 0x10000745C, symSize: 0x14 }
  - { offsetInCU: 0xD67F, offset: 0xD67F, size: 0x8, addend: 0x0, symName: __ZNKSt3__112basic_stringIcNS_11char_traitsIcEENS_9allocatorIcEEE13__get_pointerB7v160006Ev, symObjAddr: 0x4FA4, symBinAddr: 0x100007484, symSize: 0x54 }
  - { offsetInCU: 0xD6A5, offset: 0xD6A5, size: 0x8, addend: 0x0, symName: __ZNKSt3__112basic_stringIcNS_11char_traitsIcEENS_9allocatorIcEEE9__is_longB7v160006Ev, symObjAddr: 0x4FF8, symBinAddr: 0x1000074D8, symSize: 0x74 }
  - { offsetInCU: 0xD6CB, offset: 0xD6CB, size: 0x8, addend: 0x0, symName: __ZNKSt3__112basic_stringIcNS_11char_traitsIcEENS_9allocatorIcEEE18__get_long_pointerB7v160006Ev, symObjAddr: 0x506C, symBinAddr: 0x10000754C, symSize: 0x28 }
  - { offsetInCU: 0xD6F1, offset: 0xD6F1, size: 0x8, addend: 0x0, symName: __ZNKSt3__112basic_stringIcNS_11char_traitsIcEENS_9allocatorIcEEE19__get_short_pointerB7v160006Ev, symObjAddr: 0x5094, symBinAddr: 0x100007574, symSize: 0x28 }
  - { offsetInCU: 0xD717, offset: 0xD717, size: 0x8, addend: 0x0, symName: __ZNKSt3__117__compressed_pairINS_12basic_stringIcNS_11char_traitsIcEENS_9allocatorIcEEE5__repES5_E5firstB7v160006Ev, symObjAddr: 0x50BC, symBinAddr: 0x10000759C, symSize: 0x24 }
  - { offsetInCU: 0xD73D, offset: 0xD73D, size: 0x8, addend: 0x0, symName: __ZNKSt3__122__compressed_pair_elemINS_12basic_stringIcNS_11char_traitsIcEENS_9allocatorIcEEE5__repELi0ELb0EE5__getB7v160006Ev, symObjAddr: 0x50E0, symBinAddr: 0x1000075C0, symSize: 0x14 }
  - { offsetInCU: 0xD763, offset: 0xD763, size: 0x8, addend: 0x0, symName: __ZNSt3__114pointer_traitsIPKcE10pointer_toB7v160006ERS1_, symObjAddr: 0x50F4, symBinAddr: 0x1000075D4, symSize: 0x14 }
  - { offsetInCU: 0xD786, offset: 0xD786, size: 0x8, addend: 0x0, symName: __ZNSt3__119ostreambuf_iteratorIcNS_11char_traitsIcEEEC2B7v160006ERNS_13basic_ostreamIcS2_EE, symObjAddr: 0x5108, symBinAddr: 0x1000075E8, symSize: 0x68 }
  - { offsetInCU: 0xD7BE, offset: 0xD7BE, size: 0x8, addend: 0x0, symName: __ZNKSt3__19basic_iosIcNS_11char_traitsIcEEE5rdbufB7v160006Ev, symObjAddr: 0x5170, symBinAddr: 0x100007650, symSize: 0x24 }
  - { offsetInCU: 0xD7E6, offset: 0xD7E6, size: 0x8, addend: 0x0, symName: __ZNKSt3__18ios_base5rdbufB7v160006Ev, symObjAddr: 0x5194, symBinAddr: 0x100007674, symSize: 0x18 }
  - { offsetInCU: 0xD80C, offset: 0xD80C, size: 0x8, addend: 0x0, symName: __ZNSt3__111char_traitsIcE11eq_int_typeEii, symObjAddr: 0x51AC, symBinAddr: 0x10000768C, symSize: 0x28 }
  - { offsetInCU: 0xD83D, offset: 0xD83D, size: 0x8, addend: 0x0, symName: __ZNSt3__111char_traitsIcE3eofEv, symObjAddr: 0x51D4, symBinAddr: 0x1000076B4, symSize: 0x8 }
  - { offsetInCU: 0xD851, offset: 0xD851, size: 0x8, addend: 0x0, symName: __ZNSt3__18ios_base8setstateB7v160006Ej, symObjAddr: 0x51DC, symBinAddr: 0x1000076BC, symSize: 0x34 }
...
